; Function Attrs: nounwind uwtable
define internal noundef i32 @lj_cf_buffer_method_putcdata(ptr noundef %0) #0 {
  %2 = alloca ptr, align 8
  %3 = getelementptr inbounds nuw i8, ptr %0, i64 32
  %4 = load ptr, ptr %3, align 8, !tbaa !4
  %5 = getelementptr inbounds nuw i8, ptr %0, i64 40
  %6 = load ptr, ptr %5, align 8, !tbaa !14
  %7 = icmp ult ptr %4, %6
  br i1 %7, label %8, label %17

8:                                                ; preds = %1
  %9 = load i64, ptr %4, align 8, !tbaa !15
  %.mask.i = and i64 %9, -140737488355328
  %10 = icmp eq i64 %.mask.i, -1829587348619264
  br i1 %10, label %11, label %17

11:                                               ; preds = %8
  %12 = and i64 %9, 140737488355327
  %13 = inttoptr i64 %12 to ptr
  %14 = getelementptr inbounds nuw i8, ptr %13, i64 10
  %15 = load i8, ptr %14, align 2, !tbaa !15
  %16 = icmp eq i8 %15, 3
  br i1 %16, label %buffer_tobuf.exit, label %17

17:                                               ; preds = %11, %8, %1
  tail call void @lj_err_argtype(ptr noundef nonnull %0, i32 noundef 1, ptr noundef nonnull @.str.2) #7
  unreachable

buffer_tobuf.exit:                                ; preds = %11
  %18 = ptrtoint ptr %0 to i64
  %19 = getelementptr inbounds nuw i8, ptr %13, i64 72
  %20 = load i64, ptr %19, align 8, !tbaa !16
  %21 = and i64 %20, 7
  %22 = or i64 %21, %18
  store i64 %22, ptr %19, align 8, !tbaa !16
  call void @llvm.lifetime.start.p0(i64 8, ptr nonnull %2) #6
  %23 = getelementptr inbounds nuw i8, ptr %4, i64 8
  %24 = load i64, ptr %23, align 8, !tbaa !15
  %.mask = and i64 %24, -140737488355328
  %25 = icmp eq i64 %.mask, -1548112371908608
  br i1 %25, label %26, label %42

26:                                               ; preds = %buffer_tobuf.exit
  %27 = getelementptr inbounds nuw i8, ptr %13, i64 48
  %28 = getelementptr inbounds nuw i8, ptr %0, i64 16
  %29 = load i64, ptr %28, align 8, !tbaa !19
  %30 = inttoptr i64 %29 to ptr
  %31 = getelementptr inbounds nuw i8, ptr %30, i64 384
  %32 = load i64, ptr %31, align 8, !tbaa !36
  %33 = inttoptr i64 %32 to ptr
  %34 = getelementptr inbounds nuw i8, ptr %33, i64 16
  store ptr %0, ptr %34, align 8, !tbaa !37
  %35 = load ptr, ptr %33, align 8, !tbaa !46
  %36 = getelementptr inbounds nuw i8, ptr %35, i64 432
  call void @lj_cconv_ct_tv(ptr noundef nonnull %33, ptr noundef nonnull %36, ptr noundef nonnull %2, ptr noundef nonnull %23, i32 noundef 512) #6
  %37 = call i32 @lj_lib_checkintrange(ptr noundef nonnull %0, i32 noundef 3, i32 noundef 0, i32 noundef 2147483392) #6
  %38 = load ptr, ptr %2, align 8, !tbaa !47
  %39 = call ptr @lj_buf_putmem(ptr noundef nonnull %27, ptr noundef %38, i32 noundef %37) #6
  %40 = load ptr, ptr %3, align 8, !tbaa !4
  %41 = getelementptr inbounds nuw i8, ptr %40, i64 8
  store ptr %41, ptr %5, align 8, !tbaa !14
  call void @llvm.lifetime.end.p0(i64 8, ptr nonnull %2) #6
  ret i32 1

42:                                               ; preds = %buffer_tobuf.exit
  tail call void @lj_err_argtype(ptr noundef nonnull %0, i32 noundef 2, ptr noundef nonnull @.str.6) #7
  unreachable
}